target datalayout = "e-m:e-p270:32:32-p271:32:32-p272:64:64-i64:64-i128:128-f80:128-n8:16:32:64-S128"
target triple = "x86_64-pc-linux-gnu"

; Function Attrs: nounwind uwtable
define dso_local void @ResolveRecoveryConflictWithDatabase(i32 noundef %0) #0 {
  %2 = alloca i32, align 4
  store i32 %0, ptr %2, align 4
  br label %3

3:                                                ; preds = %7, %1
  %4 = load i32, ptr %2, align 4
  %5 = call i32 @CountDBBackends(i32 noundef %4)
  %6 = icmp sgt i32 %5, 0
  br i1 %6, label %7, label %9

7:                                                ; preds = %3
  %8 = load i32, ptr %2, align 4
  call void @CancelDBBackends(i32 noundef %8, i32 noundef 7, i1 noundef zeroext true)
  call void @pg_usleep(i64 noundef 10000)
  br label %3, !llvm.loop !11

9:                                                ; preds = %3
  ret void
}