; Function Attrs: nounwind uwtable
define dso_local void @ResolveRecoveryConflictWithDatabase(i32 noundef %0) local_unnamed_addr #0 {
  %2 = tail call i32 @CountDBBackends(i32 noundef %0) #7
  %3 = icmp sgt i32 %2, 0
  br i1 %3, label %.lr.ph, label %._crit_edge

.lr.ph:                                           ; preds = %1, %.lr.ph
  tail call void @CancelDBBackends(i32 noundef %0, i32 noundef 7, i1 noundef zeroext true) #7
  tail call void @pg_usleep(i64 noundef 10000) #7
  %4 = tail call i32 @CountDBBackends(i32 noundef %0) #7
  %5 = icmp sgt i32 %4, 0
  br i1 %5, label %.lr.ph, label %._crit_edge, !llvm.loop !12

._crit_edge:                                      ; preds = %.lr.ph, %1
  ret void
}